; Function Attrs: nofree nosync nounwind memory(readwrite, inaccessiblemem: none) uwtable
define void @Gia_ObjComputeTruthTable6Lut_rec(ptr noundef %0, i32 noundef %1, ptr noundef %2) local_unnamed_addr #5 {
  %4 = sext i32 %1 to i64
  %5 = getelementptr i8, ptr %0, i64 176
  %.val36 = load i32, ptr %5, align 8, !tbaa !42
  %6 = getelementptr i8, ptr %0, i64 616
  %.val37 = load ptr, ptr %6, align 8, !tbaa !43
  %7 = getelementptr inbounds i32, ptr %.val37, i64 %4
  %8 = load i32, ptr %7, align 4, !tbaa !31
  %.not = icmp eq i32 %8, %.val36
  br i1 %.not, label %common.ret49, label %9

common.ret49:                                     ; preds = %3, %9
  ret void

9:                                                ; preds = %3
  %10 = getelementptr i8, ptr %0, i64 32
  %.val = load ptr, ptr %10, align 8, !tbaa !3
  %11 = getelementptr inbounds %struct.Gia_Obj_t_, ptr %.val, i64 %4
  store i32 %.val36, ptr %7, align 4, !tbaa !31
  %12 = ptrtoint ptr %11 to i64
  %.val.i = load i64, ptr %11, align 4
  %13 = trunc i64 %.val.i to i32
  %14 = and i32 %13, 536870911
  %15 = sub nsw i32 %1, %14
  tail call void @Gia_ObjComputeTruthTable6Lut_rec(ptr noundef nonnull %0, i32 noundef %15, ptr noundef %2)
  %.val43 = load ptr, ptr %10, align 8, !tbaa !3
  %16 = ptrtoint ptr %.val43 to i64
  %17 = sub i64 %12, %16
  %18 = sdiv exact i64 %17, 12
  %19 = trunc i64 %18 to i32
  %.val.i45 = load i64, ptr %11, align 4
  %20 = lshr i64 %.val.i45, 32
  %21 = trunc nuw i64 %20 to i32
  %22 = and i32 %21, 536870911
  %23 = sub nsw i32 %19, %22
  tail call void @Gia_ObjComputeTruthTable6Lut_rec(ptr noundef nonnull %0, i32 noundef %23, ptr noundef %2)
  %.val34 = load ptr, ptr %10, align 8, !tbaa !3
  %24 = ptrtoint ptr %.val34 to i64
  %25 = sub i64 %12, %24
  %26 = sdiv exact i64 %25, 12
  %.val.i46 = load i64, ptr %11, align 4
  %27 = trunc i64 %.val.i46 to i32
  %28 = and i64 %.val.i46, 536870911
  %29 = sub nsw i64 %26, %28
  %30 = getelementptr i8, ptr %2, i64 8
  %.val39 = load ptr, ptr %30, align 8, !tbaa !44
  %sext48 = shl i64 %29, 32
  %31 = ashr exact i64 %sext48, 29
  %32 = getelementptr inbounds i8, ptr %.val39, i64 %31
  %33 = load i64, ptr %32, align 8, !tbaa !28
  %34 = shl i32 %27, 2
  %35 = ashr i32 %34, 31
  %36 = sext i32 %35 to i64
  %37 = xor i64 %33, %36
  %38 = lshr i64 %.val.i46, 32
  %39 = and i64 %38, 536870911
  %40 = sub nsw i64 %26, %39
  %sext = shl i64 %40, 32
  %41 = ashr exact i64 %sext, 29
  %42 = getelementptr inbounds i8, ptr %.val39, i64 %41
  %43 = load i64, ptr %42, align 8, !tbaa !28
  %44 = shl i64 %.val.i46, 2
  %45 = ashr i64 %44, 63
  %46 = xor i64 %43, %45
  %47 = and i64 %37, %46
  %48 = getelementptr inbounds i64, ptr %.val39, i64 %4
  store i64 %47, ptr %48, align 8, !tbaa !28
  br label %common.ret49
}